target datalayout = "e-m:e-p270:32:32-p271:32:32-p272:64:64-i64:64-i128:128-f80:128-n8:16:32:64-S128"
target triple = "x86_64-pc-linux-gnu"

%"class.icu_77::UnicodeString" = type { %"class.icu_77::Replaceable", %"union.icu_77::UnicodeString::StackBufferOrFields" }
%"class.icu_77::Replaceable" = type { %"class.icu_77::UObject" }
%"class.icu_77::UObject" = type { ptr }
%"union.icu_77::UnicodeString::StackBufferOrFields" = type { %struct.anon.0, [32 x i8] }
%struct.anon.0 = type { i16, i32, i32, ptr }
%"class.icu_77::RuleBasedNumberFormat" = type { %"class.icu_77::NumberFormat.base", ptr, ptr, i32, ptr, %"class.icu_77::Locale", ptr, ptr, ptr, ptr, i32, i8, ptr, ptr, %"class.icu_77::UnicodeString", i8, i8, i8, ptr }
%"class.icu_77::NumberFormat.base" = type <{ %"class.icu_77::Format", i8, [3 x i8], i32, i32, i32, i32, i8, i8, [4 x i16], [2 x i8], i32 }>
%"class.icu_77::Format" = type { %"class.icu_77::UObject", ptr, ptr }
%"class.icu_77::Locale" = type <{ %"class.icu_77::UObject", [12 x i8], [6 x i8], [4 x i8], [2 x i8], i32, [4 x i8], ptr, [157 x i8], [3 x i8], ptr, i8, [7 x i8] }>

; Function Attrs: inlinehint mustprogress nounwind uwtable
define linkonce_odr noundef i32 @_ZNK6icu_7713UnicodeString14getShortLengthEv(ptr noundef nonnull align 8 dereferenceable(64) %0) #4 comdat align 2 {
  %2 = alloca ptr, align 8
  store ptr %0, ptr %2, align 8, !tbaa !76
  %3 = load ptr, ptr %2, align 8
  %4 = getelementptr inbounds nuw %"class.icu_77::UnicodeString", ptr %3, i32 0, i32 1
  %5 = getelementptr inbounds nuw %struct.anon.0, ptr %4, i32 0, i32 0
  %6 = load i16, ptr %5, align 8, !tbaa !39
  %7 = sext i16 %6 to i32
  %8 = ashr i32 %7, 5
  ret i32 %8
}

; Function Attrs: inlinehint mustprogress nounwind uwtable
define linkonce_odr noundef signext i8 @_ZNK6icu_7713UnicodeString14hasShortLengthEv(ptr noundef nonnull align 8 dereferenceable(64) %0) #4 comdat align 2 {
  %2 = alloca ptr, align 8
  store ptr %0, ptr %2, align 8, !tbaa !76
  %3 = load ptr, ptr %2, align 8
  %4 = getelementptr inbounds nuw %"class.icu_77::UnicodeString", ptr %3, i32 0, i32 1
  %5 = getelementptr inbounds nuw %struct.anon.0, ptr %4, i32 0, i32 0
  %6 = load i16, ptr %5, align 8, !tbaa !39
  %7 = sext i16 %6 to i32
  %8 = icmp sge i32 %7, 0
  %9 = zext i1 %8 to i8
  ret i8 %9
}

; Function Attrs: inlinehint mustprogress uwtable
define linkonce_odr noundef i32 @_ZNK6icu_7713UnicodeString6lengthEv(ptr noundef nonnull align 8 dereferenceable(64) %0) #6 comdat align 2 {
  %2 = alloca ptr, align 8
  store ptr %0, ptr %2, align 8, !tbaa !76
  %3 = load ptr, ptr %2, align 8
  %4 = call noundef signext i8 @_ZNK6icu_7713UnicodeString14hasShortLengthEv(ptr noundef nonnull align 8 dereferenceable(64) %3)
  %5 = icmp ne i8 %4, 0
  br i1 %5, label %6, label %8

6:                                                ; preds = %1
  %7 = call noundef i32 @_ZNK6icu_7713UnicodeString14getShortLengthEv(ptr noundef nonnull align 8 dereferenceable(64) %3)
  br label %12

8:                                                ; preds = %1
  %9 = getelementptr inbounds nuw %"class.icu_77::UnicodeString", ptr %3, i32 0, i32 1
  %10 = getelementptr inbounds nuw %struct.anon.0, ptr %9, i32 0, i32 1
  %11 = load i32, ptr %10, align 4, !tbaa !39
  br label %12

12:                                               ; preds = %8, %6
  %13 = phi i32 [ %7, %6 ], [ %11, %8 ]
  ret i32 %13
}

; Function Attrs: inlinehint mustprogress uwtable
define linkonce_odr noundef nonnull align 8 dereferenceable(64) ptr @_ZN6icu_7713UnicodeString6appendERKS0_(ptr noundef nonnull align 8 dereferenceable(64) %0, ptr noundef nonnull align 8 dereferenceable(64) %1) #6 comdat align 2 {
  %3 = alloca ptr, align 8
  %4 = alloca ptr, align 8
  store ptr %0, ptr %3, align 8, !tbaa !76
  store ptr %1, ptr %4, align 8, !tbaa !76
  %5 = load ptr, ptr %3, align 8
  %6 = load ptr, ptr %4, align 8, !tbaa !76
  %7 = load ptr, ptr %4, align 8, !tbaa !76
  %8 = call noundef i32 @_ZNK6icu_7713UnicodeString6lengthEv(ptr noundef nonnull align 8 dereferenceable(64) %7)
  %9 = call noundef nonnull align 8 dereferenceable(64) ptr @_ZN6icu_7713UnicodeString8doAppendERKS0_ii(ptr noundef nonnull align 8 dereferenceable(64) %5, ptr noundef nonnull align 8 dereferenceable(64) %6, i32 noundef 0, i32 noundef %8)
  ret ptr %9
}

; Function Attrs: inlinehint mustprogress nounwind uwtable
define internal noundef signext i8 @_ZL9U_SUCCESS10UErrorCode(i32 noundef %0) #4 {
  %2 = alloca i32, align 4
  store i32 %0, ptr %2, align 4, !tbaa !28
  %3 = load i32, ptr %2, align 4, !tbaa !28
  %4 = icmp sle i32 %3, 0
  %5 = zext i1 %4 to i8
  ret i8 %5
}

; Function Attrs: mustprogress uwtable
define noundef ptr @_ZNK6icu_7721RuleBasedNumberFormat11getCollatorEv(ptr noundef nonnull align 8 dereferenceable(456) %0) #2 align 2 personality ptr @__gxx_personality_v0 {
  %2 = alloca ptr, align 8
  %3 = alloca ptr, align 8
  %4 = alloca i32, align 4
  %5 = alloca ptr, align 8
  %6 = alloca ptr, align 8
  %7 = alloca %"class.icu_77::UnicodeString", align 8
  %8 = alloca ptr, align 8
  %9 = alloca i32, align 4
  %10 = alloca ptr, align 8
  %11 = alloca i1, align 1
  %12 = alloca i32, align 4
  store ptr %0, ptr %3, align 8, !tbaa !3
  %13 = load ptr, ptr %3, align 8
  %14 = getelementptr inbounds nuw %"class.icu_77::RuleBasedNumberFormat", ptr %13, i32 0, i32 1
  %15 = load ptr, ptr %14, align 8, !tbaa !87
  %16 = icmp ne ptr %15, null
  br i1 %16, label %18, label %17

17:                                               ; preds = %1
  store ptr null, ptr %2, align 8
  br label %108

18:                                               ; preds = %1
  %19 = getelementptr inbounds nuw %"class.icu_77::RuleBasedNumberFormat", ptr %13, i32 0, i32 6
  %20 = load ptr, ptr %19, align 8, !tbaa !107
  %21 = icmp eq ptr %20, null
  br i1 %21, label %22, label %105

22:                                               ; preds = %18
  %23 = getelementptr inbounds nuw %"class.icu_77::RuleBasedNumberFormat", ptr %13, i32 0, i32 11
  %24 = load i8, ptr %23, align 4, !tbaa !112
  %25 = icmp ne i8 %24, 0
  br i1 %25, label %26, label %105

26:                                               ; preds = %22
  call void @llvm.lifetime.start.p0(i64 4, ptr %4) #14
  store i32 0, ptr %4, align 4, !tbaa !28
  call void @llvm.lifetime.start.p0(i64 8, ptr %5) #14
  %27 = getelementptr inbounds nuw %"class.icu_77::RuleBasedNumberFormat", ptr %13, i32 0, i32 5
  %28 = call noundef ptr @_ZN6icu_778Collator14createInstanceERKNS_6LocaleER10UErrorCode(ptr noundef nonnull align 8 dereferenceable(217) %27, ptr noundef nonnull align 4 dereferenceable(4) %4)
  store ptr %28, ptr %5, align 8, !tbaa !198
  call void @llvm.lifetime.start.p0(i64 8, ptr %6) #14
  %29 = load i32, ptr %4, align 4, !tbaa !28
  %30 = call noundef signext i8 @_ZL9U_SUCCESS10UErrorCode(i32 noundef %29)
  %31 = icmp ne i8 %30, 0
  br i1 %31, label %32, label %94

32:                                               ; preds = %26
  %33 = load ptr, ptr %5, align 8, !tbaa !198
  %34 = icmp eq ptr %33, null
  br i1 %34, label %38, label %35

35:                                               ; preds = %32
  %36 = load ptr, ptr %33, align 8, !tbaa !10
  %37 = icmp eq ptr %36, getelementptr inbounds inrange(-16, 328) ({ [43 x ptr] }, ptr @_ZTVN6icu_7717RuleBasedCollatorE, i32 0, i32 0, i32 2)
  br i1 %37, label %39, label %38

38:                                               ; preds = %35, %32
  br label %39

39:                                               ; preds = %38, %35
  %40 = phi ptr [ %33, %35 ], [ null, %38 ]
  store ptr %40, ptr %6, align 8, !tbaa !200
  %41 = icmp ne ptr %40, null
  br i1 %41, label %42, label %94

42:                                               ; preds = %39
  %43 = getelementptr inbounds nuw %"class.icu_77::RuleBasedNumberFormat", ptr %13, i32 0, i32 12
  %44 = load ptr, ptr %43, align 8, !tbaa !113
  %45 = icmp ne ptr %44, null
  br i1 %45, label %46, label %79

46:                                               ; preds = %42
  call void @llvm.lifetime.start.p0(i64 64, ptr %7) #14
  %47 = load ptr, ptr %6, align 8, !tbaa !200
  %48 = call noundef nonnull align 8 dereferenceable(64) ptr @_ZNK6icu_7717RuleBasedCollator8getRulesEv(ptr noundef nonnull align 8 dereferenceable(272) %47)
  call void @_ZN6icu_7713UnicodeStringC1ERKS0_(ptr noundef nonnull align 8 dereferenceable(64) %7, ptr noundef nonnull align 8 dereferenceable(64) %48)
  %49 = getelementptr inbounds nuw %"class.icu_77::RuleBasedNumberFormat", ptr %13, i32 0, i32 12
  %50 = load ptr, ptr %49, align 8, !tbaa !113
  %51 = invoke noundef nonnull align 8 dereferenceable(64) ptr @_ZN6icu_7713UnicodeString6appendERKS0_(ptr noundef nonnull align 8 dereferenceable(64) %7, ptr noundef nonnull align 8 dereferenceable(64) %50)
          to label %52 unwind label %62

52:                                               ; preds = %46
  %53 = call noundef ptr @_ZN6icu_777UMemorynwEm(i64 noundef 272) #14
  %54 = icmp eq ptr %53, null
  store i1 false, ptr %11, align 1
  br i1 %54, label %57, label %55

55:                                               ; preds = %52
  store ptr %53, ptr %10, align 8
  store i1 true, ptr %11, align 1
  invoke void @_ZN6icu_7717RuleBasedCollatorC1ERKNS_13UnicodeStringER10UErrorCode(ptr noundef nonnull align 8 dereferenceable(272) %53, ptr noundef nonnull align 8 dereferenceable(64) %7, ptr noundef nonnull align 4 dereferenceable(4) %4)
          to label %56 unwind label %66

56:                                               ; preds = %55
  br label %57

57:                                               ; preds = %56, %52
  %58 = phi ptr [ %53, %56 ], [ null, %52 ]
  store ptr %58, ptr %6, align 8, !tbaa !200
  %59 = load ptr, ptr %6, align 8, !tbaa !200
  %60 = icmp eq ptr %59, null
  br i1 %60, label %61, label %74

61:                                               ; preds = %57
  store ptr null, ptr %2, align 8
  store i32 1, ptr %12, align 4
  br label %75

62:                                               ; preds = %46
  %63 = landingpad { ptr, i32 }
          cleanup
  %64 = extractvalue { ptr, i32 } %63, 0
  store ptr %64, ptr %8, align 8
  %65 = extractvalue { ptr, i32 } %63, 1
  store i32 %65, ptr %9, align 4
  br label %78

66:                                               ; preds = %55
  %67 = landingpad { ptr, i32 }
          cleanup
  %68 = extractvalue { ptr, i32 } %67, 0
  store ptr %68, ptr %8, align 8
  %69 = extractvalue { ptr, i32 } %67, 1
  store i32 %69, ptr %9, align 4
  %70 = load i1, ptr %11, align 1
  br i1 %70, label %71, label %73

71:                                               ; preds = %66
  %72 = load ptr, ptr %10, align 8
  call void @_ZN6icu_777UMemorydlEPv(ptr noundef %72) #14
  br label %73

73:                                               ; preds = %71, %66
  br label %78

74:                                               ; preds = %57
  store i32 0, ptr %12, align 4
  br label %75

75:                                               ; preds = %74, %61
  call void @_ZN6icu_7713UnicodeStringD1Ev(ptr noundef nonnull align 8 dereferenceable(64) %7) #14
  call void @llvm.lifetime.end.p0(i64 64, ptr %7) #14
  %76 = load i32, ptr %12, align 4
  switch i32 %76, label %102 [
    i32 0, label %77
  ]

77:                                               ; preds = %75
  br label %80

78:                                               ; preds = %73, %62
  call void @_ZN6icu_7713UnicodeStringD1Ev(ptr noundef nonnull align 8 dereferenceable(64) %7) #14
  call void @llvm.lifetime.end.p0(i64 64, ptr %7) #14
  call void @llvm.lifetime.end.p0(i64 8, ptr %6) #14
  call void @llvm.lifetime.end.p0(i64 8, ptr %5) #14
  call void @llvm.lifetime.end.p0(i64 4, ptr %4) #14
  br label %110

79:                                               ; preds = %42
  store ptr null, ptr %5, align 8, !tbaa !198
  br label %80

80:                                               ; preds = %79, %77
  %81 = load i32, ptr %4, align 4, !tbaa !28
  %82 = call noundef signext i8 @_ZL9U_SUCCESS10UErrorCode(i32 noundef %81)
  %83 = icmp ne i8 %82, 0
  br i1 %83, label %84, label %88

84:                                               ; preds = %80
  %85 = load ptr, ptr %6, align 8, !tbaa !200
  call void @_ZN6icu_7717RuleBasedCollator12setAttributeE13UColAttribute18UColAttributeValueR10UErrorCode(ptr noundef nonnull align 8 dereferenceable(272) %85, i32 noundef 4, i32 noundef 17, ptr noundef nonnull align 4 dereferenceable(4) %4)
  %86 = load ptr, ptr %6, align 8, !tbaa !200
  %87 = getelementptr inbounds nuw %"class.icu_77::RuleBasedNumberFormat", ptr %13, i32 0, i32 6
  store ptr %86, ptr %87, align 8, !tbaa !107
  br label %93

88:                                               ; preds = %80
  %89 = load ptr, ptr %6, align 8, !tbaa !200
  %90 = icmp eq ptr %89, null
  br i1 %90, label %92, label %91

91:                                               ; preds = %88
  call void @_ZN6icu_7717RuleBasedCollatorD1Ev(ptr noundef nonnull align 8 dereferenceable(272) %89) #14
  call void @_ZN6icu_777UMemorydlEPv(ptr noundef %89) #14
  br label %92

92:                                               ; preds = %91, %88
  br label %93

93:                                               ; preds = %92, %84
  br label %94

94:                                               ; preds = %93, %39, %26
  %95 = load ptr, ptr %5, align 8, !tbaa !198
  %96 = icmp eq ptr %95, null
  br i1 %96, label %101, label %97

97:                                               ; preds = %94
  %98 = load ptr, ptr %95, align 8, !tbaa !10
  %99 = getelementptr inbounds ptr, ptr %98, i64 1
  %100 = load ptr, ptr %99, align 8
  call void %100(ptr noundef nonnull align 8 dereferenceable(8) %95) #14
  br label %101

101:                                              ; preds = %97, %94
  store i32 0, ptr %12, align 4
  br label %102

102:                                              ; preds = %101, %75
  call void @llvm.lifetime.end.p0(i64 8, ptr %6) #14
  call void @llvm.lifetime.end.p0(i64 8, ptr %5) #14
  call void @llvm.lifetime.end.p0(i64 4, ptr %4) #14
  %103 = load i32, ptr %12, align 4
  switch i32 %103, label %115 [
    i32 0, label %104
    i32 1, label %108
  ]

104:                                              ; preds = %102
  br label %105

105:                                              ; preds = %104, %22, %18
  %106 = getelementptr inbounds nuw %"class.icu_77::RuleBasedNumberFormat", ptr %13, i32 0, i32 6
  %107 = load ptr, ptr %106, align 8, !tbaa !107
  store ptr %107, ptr %2, align 8
  br label %108

108:                                              ; preds = %105, %102, %17
  %109 = load ptr, ptr %2, align 8
  ret ptr %109

110:                                              ; preds = %78
  %111 = load ptr, ptr %8, align 8
  %112 = load i32, ptr %9, align 4
  %113 = insertvalue { ptr, i32 } poison, ptr %111, 0
  %114 = insertvalue { ptr, i32 } %113, i32 %112, 1
  resume { ptr, i32 } %114

115:                                              ; preds = %102
  unreachable
}