; Function Attrs: mustprogress uwtable
define noundef ptr @_ZNK6icu_7721RuleBasedNumberFormat11getCollatorEv(ptr noundef nonnull align 8 dereferenceable(456) %0) local_unnamed_addr #3 align 2 personality ptr @__gxx_personality_v0 {
  %2 = alloca i32, align 4
  %3 = alloca %"class.icu_77::UnicodeString", align 8
  %4 = getelementptr inbounds nuw i8, ptr %0, i64 64
  %5 = load ptr, ptr %4, align 8, !tbaa !95
  %.not = icmp eq ptr %5, null
  br i1 %.not, label %52, label %6

6:                                                ; preds = %1
  %7 = getelementptr inbounds nuw i8, ptr %0, i64 320
  %8 = load ptr, ptr %7, align 8, !tbaa !111
  %9 = icmp ne ptr %8, null
  %10 = getelementptr inbounds nuw i8, ptr %0, i64 356
  %11 = load i8, ptr %10, align 4
  %.not24 = icmp eq i8 %11, 0
  %or.cond = select i1 %9, i1 true, i1 %.not24
  br i1 %or.cond, label %52, label %12

12:                                               ; preds = %6
  call void @llvm.lifetime.start.p0(i64 4, ptr nonnull %2) #21
  store i32 0, ptr %2, align 4, !tbaa !19
  %13 = getelementptr inbounds nuw i8, ptr %0, i64 96
  %14 = call noundef ptr @_ZN6icu_778Collator14createInstanceERKNS_6LocaleER10UErrorCode(ptr noundef nonnull align 8 dereferenceable(217) %13, ptr noundef nonnull align 4 dereferenceable(4) %2)
  %15 = load i32, ptr %2, align 4, !tbaa !19
  %16 = icmp sgt i32 %15, 0
  br i1 %16, label %.thread, label %17

17:                                               ; preds = %12
  %18 = icmp eq ptr %14, null
  br i1 %18, label %.thread35, label %19

19:                                               ; preds = %17
  %20 = load ptr, ptr %14, align 8, !tbaa !3
  %21 = icmp eq ptr %20, getelementptr inbounds nuw inrange(-16, 328) (i8, ptr @_ZTVN6icu_7717RuleBasedCollatorE, i64 16)
  br i1 %21, label %22, label %.thread.thread39

22:                                               ; preds = %19
  %23 = getelementptr inbounds nuw i8, ptr %0, i64 360
  %24 = load ptr, ptr %23, align 8, !tbaa !93
  %.not27 = icmp eq ptr %24, null
  br i1 %.not27, label %.thread44, label %25

25:                                               ; preds = %22
  call void @llvm.lifetime.start.p0(i64 64, ptr nonnull %3) #21
  %26 = call noundef nonnull align 8 dereferenceable(64) ptr @_ZNK6icu_7717RuleBasedCollator8getRulesEv(ptr noundef nonnull align 8 dereferenceable(272) %14)
  call void @_ZN6icu_7713UnicodeStringC1ERKS0_(ptr noundef nonnull align 8 dereferenceable(64) %3, ptr noundef nonnull align 8 dereferenceable(64) %26)
  %27 = load ptr, ptr %23, align 8, !tbaa !93
  %28 = getelementptr inbounds nuw i8, ptr %27, i64 8
  %29 = load i16, ptr %28, align 8, !tbaa !55
  %30 = icmp slt i16 %29, 0
  %31 = ashr i16 %29, 5
  %32 = sext i16 %31 to i32
  %33 = getelementptr inbounds nuw i8, ptr %27, i64 12
  %34 = load i32, ptr %33, align 4
  %35 = select i1 %30, i32 %34, i32 %32
  %36 = invoke noundef nonnull align 8 dereferenceable(64) ptr @_ZN6icu_7713UnicodeString8doAppendERKS0_ii(ptr noundef nonnull align 8 dereferenceable(64) %3, ptr noundef nonnull align 8 dereferenceable(64) %27, i32 noundef 0, i32 noundef %35)
          to label %_ZN6icu_7713UnicodeString6appendERKS0_.exit unwind label %40

_ZN6icu_7713UnicodeString6appendERKS0_.exit:      ; preds = %25
  %37 = call noundef ptr @_ZN6icu_777UMemorynwEm(i64 noundef 272) #21
  %38 = icmp eq ptr %37, null
  br i1 %38, label %51, label %39

39:                                               ; preds = %_ZN6icu_7713UnicodeString6appendERKS0_.exit
  invoke void @_ZN6icu_7717RuleBasedCollatorC1ERKNS_13UnicodeStringER10UErrorCode(ptr noundef nonnull align 8 dereferenceable(272) %37, ptr noundef nonnull align 8 dereferenceable(64) %3, ptr noundef nonnull align 4 dereferenceable(4) %2)
          to label %45 unwind label %42

40:                                               ; preds = %25
  %41 = landingpad { ptr, i32 }
          cleanup
  br label %44

42:                                               ; preds = %39
  %43 = landingpad { ptr, i32 }
          cleanup
  call void @_ZN6icu_777UMemorydlEPv(ptr noundef nonnull %37) #21
  br label %44

44:                                               ; preds = %42, %40
  %.pn = phi { ptr, i32 } [ %43, %42 ], [ %41, %40 ]
  call void @_ZN6icu_7713UnicodeStringD1Ev(ptr noundef nonnull align 8 dereferenceable(64) %3) #21
  call void @llvm.lifetime.end.p0(i64 64, ptr nonnull %3) #21
  call void @llvm.lifetime.end.p0(i64 4, ptr nonnull %2) #21
  resume { ptr, i32 } %.pn

45:                                               ; preds = %39
  call void @_ZN6icu_7713UnicodeStringD1Ev(ptr noundef nonnull align 8 dereferenceable(64) %3) #21
  call void @llvm.lifetime.end.p0(i64 64, ptr nonnull %3) #21
  %.pre = load i32, ptr %2, align 4, !tbaa !19
  %46 = icmp sgt i32 %.pre, 0
  br i1 %46, label %.thread.thread, label %.thread44

.thread44:                                        ; preds = %22, %45
  %.01848 = phi ptr [ %37, %45 ], [ %14, %22 ]
  %.12047 = phi ptr [ %14, %45 ], [ null, %22 ]
  call void @_ZN6icu_7717RuleBasedCollator12setAttributeE13UColAttribute18UColAttributeValueR10UErrorCode(ptr noundef nonnull align 8 dereferenceable(272) %.01848, i32 noundef 4, i32 noundef 17, ptr noundef nonnull align 4 dereferenceable(4) %2)
  store ptr %.01848, ptr %7, align 8, !tbaa !111
  br label %.thread

.thread.thread:                                   ; preds = %45
  call void @_ZN6icu_7717RuleBasedCollatorD1Ev(ptr noundef nonnull align 8 dereferenceable(272) %37) #21
  call void @_ZN6icu_777UMemorydlEPv(ptr noundef nonnull %37) #21
  br label %.thread..thread.thread39_crit_edge

.thread:                                          ; preds = %.thread44, %12
  %.019 = phi ptr [ %.12047, %.thread44 ], [ %14, %12 ]
  %47 = icmp eq ptr %.019, null
  br i1 %47, label %.thread35, label %.thread..thread.thread39_crit_edge

.thread..thread.thread39_crit_edge:               ; preds = %.thread.thread, %.thread
  %.01950 = phi ptr [ %14, %.thread.thread ], [ %.019, %.thread ]
  %.pre42 = load ptr, ptr %.01950, align 8, !tbaa !3
  br label %.thread.thread39

.thread.thread39:                                 ; preds = %.thread..thread.thread39_crit_edge, %19
  %48 = phi ptr [ %.pre42, %.thread..thread.thread39_crit_edge ], [ %20, %19 ]
  %.01941 = phi ptr [ %.01950, %.thread..thread.thread39_crit_edge ], [ %14, %19 ]
  %49 = getelementptr inbounds nuw i8, ptr %48, i64 8
  %50 = load ptr, ptr %49, align 8
  call void %50(ptr noundef nonnull align 8 dereferenceable(8) %.01941) #21
  br label %.thread35

.thread35:                                        ; preds = %17, %.thread.thread39, %.thread
  call void @llvm.lifetime.end.p0(i64 4, ptr nonnull %2) #21
  %.pre43 = load ptr, ptr %7, align 8, !tbaa !111
  br label %52

51:                                               ; preds = %_ZN6icu_7713UnicodeString6appendERKS0_.exit
  call void @_ZN6icu_7713UnicodeStringD1Ev(ptr noundef nonnull align 8 dereferenceable(64) %3) #21
  call void @llvm.lifetime.end.p0(i64 64, ptr nonnull %3) #21
  call void @llvm.lifetime.end.p0(i64 4, ptr nonnull %2) #21
  br label %52

52:                                               ; preds = %6, %.thread35, %51, %1
  %.014 = phi ptr [ null, %51 ], [ null, %1 ], [ %.pre43, %.thread35 ], [ %8, %6 ]
  ret ptr %.014
}